; ModuleID = '44/200.c'
source_filename = "44/200.c"
target datalayout = "e-m:e-p270:32:32-p271:32:32-p272:64:64-i64:64-f80:128-n8:16:32:64-S128"
target triple = "x86_64-pc-linux-gnu"

@.str = private unnamed_addr constant [3 x i8] c"%d\00", align 1
@.str.1 = private unnamed_addr constant [4 x i8] c"%d\0A\00", align 1

; Function Attrs: noinline nounwind uwtable
define dso_local i32 @main() #0 {
  %1 = alloca i32, align 4
  %2 = alloca i32, align 4
  %3 = alloca i32, align 4
  store i32 0, i32* %1, align 4
  store i32 1, i32* %3, align 4
  br label %4

4:                                                ; preds = %23, %0
  %5 = load i32, i32* %3, align 4
  %6 = icmp sle i32 %5, 6
  br i1 %6, label %7, label %26

7:                                                ; preds = %4
  %8 = call i32 (i8*, ...) @__isoc99_scanf(i8* getelementptr inbounds ([3 x i8], [3 x i8]* @.str, i64 0, i64 0), i32* %2)
  %9 = load i32, i32* %2, align 4
  %10 = icmp sge i32 %9, 0
  br i1 %10, label %11, label %14

11:                                               ; preds = %7
  %12 = load i32, i32* %2, align 4
  %13 = call i32 @qiufan(i32 %12)
  store i32 %13, i32* %2, align 4
  br label %20

14:                                               ; preds = %7
  %15 = load i32, i32* %2, align 4
  %16 = sub nsw i32 0, %15
  store i32 %16, i32* %2, align 4
  %17 = load i32, i32* %2, align 4
  %18 = call i32 @qiufan(i32 %17)
  %19 = sub nsw i32 0, %18
  store i32 %19, i32* %2, align 4
  br label %20

20:                                               ; preds = %14, %11
  %21 = load i32, i32* %2, align 4
  %22 = call i32 (i8*, ...) @printf(i8* getelementptr inbounds ([4 x i8], [4 x i8]* @.str.1, i64 0, i64 0), i32 %21)
  br label %23

23:                                               ; preds = %20
  %24 = load i32, i32* %3, align 4
  %25 = add nsw i32 %24, 1
  store i32 %25, i32* %3, align 4
  br label %4

26:                                               ; preds = %4
  ret i32 0
}

declare dso_local i32 @__isoc99_scanf(i8*, ...) #1

; Function Attrs: noinline nounwind uwtable
define dso_local i32 @qiufan(i32 %0) #0 {
  %2 = alloca i32, align 4
  %3 = alloca i32, align 4
  %4 = alloca i32, align 4
  %5 = alloca i32, align 4
  %6 = alloca i32, align 4
  store i32 %0, i32* %2, align 4
  store i32 0, i32* %3, align 4
  store i32 0, i32* %4, align 4
  store i32 0, i32* %5, align 4
  %7 = load i32, i32* %2, align 4
  store i32 %7, i32* %6, align 4
  store i32 0, i32* %5, align 4
  br label %8

8:                                                ; preds = %14, %1
  %9 = load i32, i32* %6, align 4
  %10 = icmp ne i32 %9, 0
  br i1 %10, label %11, label %17

11:                                               ; preds = %8
  %12 = load i32, i32* %6, align 4
  %13 = sdiv i32 %12, 10
  store i32 %13, i32* %6, align 4
  br label %14

14:                                               ; preds = %11
  %15 = load i32, i32* %5, align 4
  %16 = add nsw i32 %15, 1
  store i32 %16, i32* %5, align 4
  br label %8

17:                                               ; preds = %8
  %18 = load i32, i32* %2, align 4
  %19 = srem i32 %18, 10
  store i32 %19, i32* %3, align 4
  %20 = load i32, i32* %2, align 4
  %21 = sdiv i32 %20, 10
  store i32 %21, i32* %6, align 4
  store i32 1, i32* %4, align 4
  br label %22

22:                                               ; preds = %34, %17
  %23 = load i32, i32* %4, align 4
  %24 = load i32, i32* %5, align 4
  %25 = icmp slt i32 %23, %24
  br i1 %25, label %26, label %37

26:                                               ; preds = %22
  %27 = load i32, i32* %3, align 4
  %28 = mul nsw i32 %27, 10
  %29 = load i32, i32* %6, align 4
  %30 = srem i32 %29, 10
  %31 = add nsw i32 %28, %30
  store i32 %31, i32* %3, align 4
  %32 = load i32, i32* %6, align 4
  %33 = sdiv i32 %32, 10
  store i32 %33, i32* %6, align 4
  br label %34

34:                                               ; preds = %26
  %35 = load i32, i32* %4, align 4
  %36 = add nsw i32 %35, 1
  store i32 %36, i32* %4, align 4
  br label %22

37:                                               ; preds = %22
  %38 = load i32, i32* %3, align 4
  ret i32 %38
}

declare dso_local i32 @printf(i8*, ...) #1


!llvm.module.flags = !{!0}
!llvm.ident = !{!1}

!0 = !{i32 1, !"wchar_size", i32 4}
!1 = !{!"clang version 10.0.0-4ubuntu1 "}
